target datalayout = "e-m:e-p270:32:32-p271:32:32-p272:64:64-i64:64-i128:128-f80:128-n8:16:32:64-S128"
target triple = "x86_64-pc-linux-gnu"

; Function Attrs: nounwind sspstrong uwtable
define dso_local i64 @ruby_scan_digits(ptr noundef %0, i64 noundef %1, i32 noundef %2, ptr noundef %3, ptr noundef %4) #2 {
  %6 = alloca i64, align 8
  %7 = alloca ptr, align 8
  %8 = alloca i64, align 8
  %9 = alloca i32, align 4
  %10 = alloca ptr, align 8
  %11 = alloca ptr, align 8
  %12 = alloca ptr, align 8
  %13 = alloca i64, align 8
  %14 = alloca i64, align 8
  %15 = alloca i64, align 8
  %16 = alloca i32, align 4
  %17 = alloca i32, align 4
  store ptr %0, ptr %7, align 8, !tbaa !7
  store i64 %1, ptr %8, align 8, !tbaa !12
  store i32 %2, ptr %9, align 4, !tbaa !20
  store ptr %3, ptr %10, align 8, !tbaa !14
  store ptr %4, ptr %11, align 8, !tbaa !22
  call void @llvm.lifetime.start.p0(i64 8, ptr %12) #16
  %18 = load ptr, ptr %7, align 8, !tbaa !7
  store ptr %18, ptr %12, align 8, !tbaa !7
  call void @llvm.lifetime.start.p0(i64 8, ptr %13) #16
  store i64 0, ptr %13, align 8, !tbaa !12
  call void @llvm.lifetime.start.p0(i64 8, ptr %14) #16
  call void @llvm.lifetime.start.p0(i64 8, ptr %15) #16
  %19 = load i32, ptr %9, align 4, !tbaa !20
  %20 = sext i32 %19 to i64
  %21 = udiv i64 -1, %20
  store i64 %21, ptr %15, align 8, !tbaa !12
  %22 = load ptr, ptr %11, align 8, !tbaa !22
  store i32 0, ptr %22, align 4, !tbaa !20
  %23 = load i64, ptr %8, align 8, !tbaa !12
  %24 = icmp ne i64 %23, 0
  br i1 %24, label %27, label %25

25:                                               ; preds = %5
  %26 = load ptr, ptr %10, align 8, !tbaa !14
  store i64 0, ptr %26, align 8, !tbaa !12
  store i64 0, ptr %6, align 8
  store i32 1, ptr %16, align 4
  br label %87

27:                                               ; preds = %5
  br label %28

28:                                               ; preds = %77, %27
  call void @llvm.lifetime.start.p0(i64 4, ptr %17) #16
  %29 = load ptr, ptr %7, align 8, !tbaa !7
  %30 = getelementptr i8, ptr %29, i32 1
  store ptr %30, ptr %7, align 8, !tbaa !7
  %31 = load i8, ptr %29, align 1, !tbaa !16
  %32 = zext i8 %31 to i64
  %33 = getelementptr [256 x i8], ptr @ruby_digit36_to_number_table, i64 0, i64 %32
  %34 = load i8, ptr %33, align 1, !tbaa !16
  %35 = sext i8 %34 to i32
  store i32 %35, ptr %17, align 4, !tbaa !20
  %36 = load i32, ptr %17, align 4, !tbaa !20
  %37 = icmp eq i32 %36, -1
  br i1 %37, label %42, label %38

38:                                               ; preds = %28
  %39 = load i32, ptr %9, align 4, !tbaa !20
  %40 = load i32, ptr %17, align 4, !tbaa !20
  %41 = icmp sle i32 %39, %40
  br i1 %41, label %42, label %45

42:                                               ; preds = %38, %28
  %43 = load ptr, ptr %7, align 8, !tbaa !7
  %44 = getelementptr i8, ptr %43, i32 -1
  store ptr %44, ptr %7, align 8, !tbaa !7
  store i32 2, ptr %16, align 4
  br label %67

45:                                               ; preds = %38
  %46 = load i64, ptr %15, align 8, !tbaa !12
  %47 = load i64, ptr %13, align 8, !tbaa !12
  %48 = icmp ult i64 %46, %47
  br i1 %48, label %49, label %51

49:                                               ; preds = %45
  %50 = load ptr, ptr %11, align 8, !tbaa !22
  store i32 1, ptr %50, align 4, !tbaa !20
  br label %51

51:                                               ; preds = %49, %45
  %52 = load i32, ptr %9, align 4, !tbaa !20
  %53 = sext i32 %52 to i64
  %54 = load i64, ptr %13, align 8, !tbaa !12
  %55 = mul i64 %54, %53
  store i64 %55, ptr %13, align 8, !tbaa !12
  %56 = load i64, ptr %13, align 8, !tbaa !12
  store i64 %56, ptr %14, align 8, !tbaa !12
  %57 = load i32, ptr %17, align 4, !tbaa !20
  %58 = sext i32 %57 to i64
  %59 = load i64, ptr %13, align 8, !tbaa !12
  %60 = add i64 %59, %58
  store i64 %60, ptr %13, align 8, !tbaa !12
  %61 = load i64, ptr %13, align 8, !tbaa !12
  %62 = load i64, ptr %14, align 8, !tbaa !12
  %63 = icmp ult i64 %61, %62
  br i1 %63, label %64, label %66

64:                                               ; preds = %51
  %65 = load ptr, ptr %11, align 8, !tbaa !22
  store i32 1, ptr %65, align 4, !tbaa !20
  br label %66

66:                                               ; preds = %64, %51
  store i32 0, ptr %16, align 4
  br label %67

67:                                               ; preds = %66, %42
  call void @llvm.lifetime.end.p0(i64 4, ptr %17) #16
  %68 = load i32, ptr %16, align 4
  switch i32 %68, label %89 [
    i32 0, label %69
    i32 2, label %79
  ]

69:                                               ; preds = %67
  br label %70

70:                                               ; preds = %69
  %71 = load i64, ptr %8, align 8, !tbaa !12
  %72 = icmp slt i64 %71, 0
  br i1 %72, label %77, label %73

73:                                               ; preds = %70
  %74 = load i64, ptr %8, align 8, !tbaa !12
  %75 = add i64 %74, -1
  store i64 %75, ptr %8, align 8, !tbaa !12
  %76 = icmp ne i64 %75, 0
  br label %77

77:                                               ; preds = %73, %70
  %78 = phi i1 [ true, %70 ], [ %76, %73 ]
  br i1 %78, label %28, label %79, !llvm.loop !24

79:                                               ; preds = %77, %67
  %80 = load ptr, ptr %7, align 8, !tbaa !7
  %81 = load ptr, ptr %12, align 8, !tbaa !7
  %82 = ptrtoint ptr %80 to i64
  %83 = ptrtoint ptr %81 to i64
  %84 = sub i64 %82, %83
  %85 = load ptr, ptr %10, align 8, !tbaa !14
  store i64 %84, ptr %85, align 8, !tbaa !12
  %86 = load i64, ptr %13, align 8, !tbaa !12
  store i64 %86, ptr %6, align 8
  store i32 1, ptr %16, align 4
  br label %87

87:                                               ; preds = %79, %25
  call void @llvm.lifetime.end.p0(i64 8, ptr %15) #16
  call void @llvm.lifetime.end.p0(i64 8, ptr %14) #16
  call void @llvm.lifetime.end.p0(i64 8, ptr %13) #16
  call void @llvm.lifetime.end.p0(i64 8, ptr %12) #16
  %88 = load i64, ptr %6, align 8
  ret i64 %88

89:                                               ; preds = %67
  unreachable
}