; Function Attrs: nofree norecurse nosync nounwind sspstrong memory(argmem: readwrite) uwtable
define dso_local i64 @ruby_scan_digits(ptr noundef %0, i64 noundef %1, i32 noundef %2, ptr noundef writeonly captures(none) %3, ptr noundef writeonly captures(none) initializes((0, 4)) %4) local_unnamed_addr #0 {
  %6 = sext i32 %2 to i64
  store i32 0, ptr %4, align 4, !tbaa !15
  %.not = icmp eq i64 %1, 0
  br i1 %.not, label %47, label %.critedge.outer.preheader

.critedge.outer.preheader:                        ; preds = %5
  %scevgep = getelementptr i8, ptr %0, i64 %1
  br label %.critedge.outer

.critedge.outer:                                  ; preds = %.critedge.outer.preheader, %42
  %.031.ph = phi i64 [ %38, %42 ], [ 0, %.critedge.outer.preheader ]
  %.030.ph = phi i64 [ %43, %42 ], [ %1, %.critedge.outer.preheader ]
  %.029.ph = phi ptr [ %28, %42 ], [ %0, %.critedge.outer.preheader ]
  %7 = icmp slt i64 %.030.ph, 0
  br i1 %7, label %.critedge.us.preheader, label %.critedge.outer.split

.critedge.us.preheader:                           ; preds = %.critedge.outer
  %8 = load i8, ptr %.029.ph, align 1, !tbaa !7
  %9 = zext i8 %8 to i64
  %10 = getelementptr [256 x i8], ptr @ruby_digit36_to_number_table, i64 0, i64 %9
  %11 = load i8, ptr %10, align 1, !tbaa !7
  %12 = icmp ne i8 %11, -1
  %13 = sext i8 %11 to i32
  %.not36.us65 = icmp sgt i32 %2, %13
  %or.cond.us66 = and i1 %12, %.not36.us65
  br i1 %or.cond.us66, label %.lr.ph, label %.loopexit

.lr.ph:                                           ; preds = %.critedge.us.preheader, %.critedge.us
  %14 = phi i8 [ %25, %.critedge.us ], [ %11, %.critedge.us.preheader ]
  %.029.ph.pn = phi ptr [ %15, %.critedge.us ], [ %.029.ph, %.critedge.us.preheader ]
  %.031.us67 = phi i64 [ %18, %.critedge.us ], [ %.031.ph, %.critedge.us.preheader ]
  %15 = getelementptr i8, ptr %.029.ph.pn, i64 1
  %mul.us = tail call { i64, i1 } @llvm.umul.with.overflow.i64(i64 %6, i64 %.031.us67)
  %mul.ov.us = extractvalue { i64, i1 } %mul.us, 1
  %16 = mul i64 %.031.us67, %6
  %17 = sext i8 %14 to i64
  %18 = add i64 %16, %17
  %19 = icmp ult i64 %18, %16
  %20 = or i1 %mul.ov.us, %19
  br i1 %20, label %21, label %.critedge.us

21:                                               ; preds = %.lr.ph
  store i32 1, ptr %4, align 4, !tbaa !15
  br label %.critedge.us

.critedge.us:                                     ; preds = %21, %.lr.ph
  %22 = load i8, ptr %15, align 1, !tbaa !7
  %23 = zext i8 %22 to i64
  %24 = getelementptr [256 x i8], ptr @ruby_digit36_to_number_table, i64 0, i64 %23
  %25 = load i8, ptr %24, align 1, !tbaa !7
  %26 = icmp ne i8 %25, -1
  %27 = sext i8 %25 to i32
  %.not36.us = icmp sgt i32 %2, %27
  %or.cond.us = and i1 %26, %.not36.us
  br i1 %or.cond.us, label %.lr.ph, label %.loopexit

.critedge.outer.split:                            ; preds = %.critedge.outer
  %28 = getelementptr i8, ptr %.029.ph, i64 1
  %29 = load i8, ptr %.029.ph, align 1, !tbaa !7
  %30 = zext i8 %29 to i64
  %31 = getelementptr [256 x i8], ptr @ruby_digit36_to_number_table, i64 0, i64 %30
  %32 = load i8, ptr %31, align 1, !tbaa !7
  %33 = icmp ne i8 %32, -1
  %34 = sext i8 %32 to i32
  %.not36 = icmp sgt i32 %2, %34
  %or.cond = and i1 %33, %.not36
  br i1 %or.cond, label %35, label %.loopexit

35:                                               ; preds = %.critedge.outer.split
  %mul = tail call { i64, i1 } @llvm.umul.with.overflow.i64(i64 %6, i64 %.031.ph)
  %mul.ov = extractvalue { i64, i1 } %mul, 1
  %36 = mul i64 %.031.ph, %6
  %37 = sext i8 %32 to i64
  %38 = add i64 %36, %37
  %39 = icmp ult i64 %38, %36
  %40 = or i1 %mul.ov, %39
  br i1 %40, label %41, label %42

41:                                               ; preds = %35
  store i32 1, ptr %4, align 4, !tbaa !15
  br label %42

42:                                               ; preds = %35, %41
  %43 = add nsw i64 %.030.ph, -1
  %.not37 = icmp eq i64 %43, 0
  br i1 %.not37, label %.loopexit, label %.critedge.outer, !llvm.loop !17

.loopexit:                                        ; preds = %42, %.critedge.outer.split, %.critedge.us, %.critedge.us.preheader
  %.144 = phi ptr [ %.029.ph, %.critedge.us.preheader ], [ %15, %.critedge.us ], [ %.029.ph, %.critedge.outer.split ], [ %scevgep, %42 ]
  %.13243 = phi i64 [ %.031.ph, %.critedge.us.preheader ], [ %18, %.critedge.us ], [ %.031.ph, %.critedge.outer.split ], [ %38, %42 ]
  %44 = ptrtoint ptr %.144 to i64
  %45 = ptrtoint ptr %0 to i64
  %46 = sub i64 %44, %45
  br label %47

47:                                               ; preds = %5, %.loopexit
  %storemerge = phi i64 [ %46, %.loopexit ], [ 0, %5 ]
  %.0 = phi i64 [ %.13243, %.loopexit ], [ 0, %5 ]
  store i64 %storemerge, ptr %3, align 8, !tbaa !12
  ret i64 %.0
}